; Function Attrs: mustprogress uwtable
define hidden void @_ZNK4cvc58internal7printer3ast10AstPrinter18toStreamCmdGetInfoERSoRKNSt7__cxx1112basic_stringIcSt11char_traitsIcESaIcEEE(ptr nonnull readnone align 8 captures(none) %0, ptr noundef nonnull align 8 dereferenceable(8) %1, ptr noundef nonnull readonly align 8 captures(none) dereferenceable(32) %2) unnamed_addr #3 align 2 {
  %4 = alloca i8, align 1
  %5 = tail call noundef nonnull align 8 dereferenceable(8) ptr @_ZSt16__ostream_insertIcSt11char_traitsIcEERSt13basic_ostreamIT_T0_ES6_PKS3_l(ptr noundef nonnull align 8 dereferenceable(8) %1, ptr noundef nonnull @.str.44, i64 noundef 8)
  %6 = load ptr, ptr %2, align 8, !tbaa !15
  %7 = getelementptr inbounds nuw i8, ptr %2, i64 8
  %8 = load i64, ptr %7, align 8, !tbaa !11
  %9 = tail call noundef nonnull align 8 dereferenceable(8) ptr @_ZSt16__ostream_insertIcSt11char_traitsIcEERSt13basic_ostreamIT_T0_ES6_PKS3_l(ptr noundef nonnull align 8 dereferenceable(8) %1, ptr noundef %6, i64 noundef %8)
  call void @llvm.lifetime.start.p0(i64 1, ptr nonnull %4)
  store i8 41, ptr %4, align 1, !tbaa !14
  %10 = load ptr, ptr %9, align 8, !tbaa !3
  %11 = getelementptr i8, ptr %10, i64 -24
  %12 = load i64, ptr %11, align 8
  %13 = getelementptr inbounds i8, ptr %9, i64 %12
  %14 = getelementptr inbounds nuw i8, ptr %13, i64 16
  %15 = load i64, ptr %14, align 8, !tbaa !46
  %.not.i = icmp eq i64 %15, 0
  br i1 %.not.i, label %18, label %16

16:                                               ; preds = %3
  %17 = call noundef nonnull align 8 dereferenceable(8) ptr @_ZSt16__ostream_insertIcSt11char_traitsIcEERSt13basic_ostreamIT_T0_ES6_PKS3_l(ptr noundef nonnull align 8 dereferenceable(8) %9, ptr noundef nonnull %4, i64 noundef 1)
  br label %_ZStlsISt11char_traitsIcEERSt13basic_ostreamIcT_ES5_c.exit

18:                                               ; preds = %3
  %19 = tail call noundef nonnull align 8 dereferenceable(8) ptr @_ZNSo3putEc(ptr noundef nonnull align 8 dereferenceable(8) %9, i8 noundef signext 41)
  br label %_ZStlsISt11char_traitsIcEERSt13basic_ostreamIcT_ES5_c.exit

_ZStlsISt11char_traitsIcEERSt13basic_ostreamIcT_ES5_c.exit: ; preds = %16, %18
  %.0.i = phi ptr [ %17, %16 ], [ %9, %18 ]
  call void @llvm.lifetime.end.p0(i64 1, ptr nonnull %4)
  %20 = load ptr, ptr %.0.i, align 8, !tbaa !3
  %21 = getelementptr i8, ptr %20, i64 -24
  %22 = load i64, ptr %21, align 8
  %23 = getelementptr inbounds i8, ptr %.0.i, i64 %22
  %24 = getelementptr inbounds nuw i8, ptr %23, i64 240
  %25 = load ptr, ptr %24, align 8, !tbaa !69
  %.not.i.i.i = icmp eq ptr %25, null
  br i1 %.not.i.i.i, label %26, label %_ZSt13__check_facetISt5ctypeIcEERKT_PS3_.exit.i.i

26:                                               ; preds = %_ZStlsISt11char_traitsIcEERSt13basic_ostreamIcT_ES5_c.exit
  call void @_ZSt16__throw_bad_castv() #24
  unreachable

_ZSt13__check_facetISt5ctypeIcEERKT_PS3_.exit.i.i: ; preds = %_ZStlsISt11char_traitsIcEERSt13basic_ostreamIcT_ES5_c.exit
  %27 = getelementptr inbounds nuw i8, ptr %25, i64 56
  %28 = load i8, ptr %27, align 8, !tbaa !77
  %.not.i1.i.i = icmp eq i8 %28, 0
  br i1 %.not.i1.i.i, label %32, label %29

29:                                               ; preds = %_ZSt13__check_facetISt5ctypeIcEERKT_PS3_.exit.i.i
  %30 = getelementptr inbounds nuw i8, ptr %25, i64 67
  %31 = load i8, ptr %30, align 1, !tbaa !14
  br label %_ZSt4endlIcSt11char_traitsIcEERSt13basic_ostreamIT_T0_ES6_.exit

32:                                               ; preds = %_ZSt13__check_facetISt5ctypeIcEERKT_PS3_.exit.i.i
  call void @_ZNKSt5ctypeIcE13_M_widen_initEv(ptr noundef nonnull align 8 dereferenceable(570) %25)
  %33 = load ptr, ptr %25, align 8, !tbaa !3
  %34 = getelementptr inbounds nuw i8, ptr %33, i64 48
  %35 = load ptr, ptr %34, align 8
  %36 = call noundef signext i8 %35(ptr noundef nonnull align 8 dereferenceable(570) %25, i8 noundef signext 10)
  br label %_ZSt4endlIcSt11char_traitsIcEERSt13basic_ostreamIT_T0_ES6_.exit

_ZSt4endlIcSt11char_traitsIcEERSt13basic_ostreamIT_T0_ES6_.exit: ; preds = %29, %32
  %.0.i.i.i = phi i8 [ %31, %29 ], [ %36, %32 ]
  %37 = call noundef nonnull align 8 dereferenceable(8) ptr @_ZNSo3putEc(ptr noundef nonnull align 8 dereferenceable(8) %.0.i, i8 noundef signext %.0.i.i.i)
  %38 = call noundef nonnull align 8 dereferenceable(8) ptr @_ZNSo5flushEv(ptr noundef nonnull align 8 dereferenceable(8) %37)
  ret void
}